target datalayout = "e-m:e-p270:32:32-p271:32:32-p272:64:64-i64:64-i128:128-f80:128-n8:16:32:64-S128"
target triple = "x86_64-unknown-linux-gnu"

%struct.QTailQLink = type { ptr, ptr }
%struct.QDictRenames = type { ptr, ptr }
%struct.CoMutex = type { i32, ptr, %struct.anon.0, %struct.anon.0, i32, i32, ptr }
%struct.anon.0 = type { ptr }
%struct.BlockDriverState = type { i32, i8, i8, i8, i8, i8, ptr, ptr, ptr, %struct.anon.2, i8, [4096 x i8], [4096 x i8], [4096 x i8], [16 x i8], ptr, [4096 x i8], %struct.BlockLimits, i32, i32, i32, i32, [32 x i8], %union.anon.3, %union.anon.4, %union.anon.5, i32, [16 x %struct.anon.6], ptr, %struct.anon.7, ptr, ptr, %struct.anon.8, ptr, ptr, i32, ptr, i64, i64, %struct.QemuMutex, %struct.anon.9, %struct.Stat64, i32, i32, i32, i32, i32, i32, %struct.QemuMutex, %struct.anon.10, %struct.CoQueue, i8, i32, i8, %struct.CoMutex, ptr, ptr }
%struct.anon.2 = type { ptr }
%struct.BlockLimits = type { i32, i64, i32, i64, i32, i32, i32, i64, i32, i64, i64, i32, i8, i32, i32, i32, i32, i32, i32, i32 }
%union.anon.3 = type { %struct.QTailQLink }
%union.anon.4 = type { %struct.QTailQLink }
%union.anon.5 = type { %struct.QTailQLink }
%struct.anon.6 = type { ptr }
%struct.anon.7 = type { ptr }
%struct.anon.8 = type { ptr }
%struct.anon.9 = type { ptr }
%struct.Stat64 = type { i64 }
%struct.QemuMutex = type { %union.pthread_mutex_t, i8 }
%union.pthread_mutex_t = type { %struct.__pthread_mutex_s }
%struct.__pthread_mutex_s = type { i32, i32, i32, i32, i32, i16, i16, %struct.__pthread_internal_list }
%struct.__pthread_internal_list = type { ptr, ptr }
%struct.anon.10 = type { ptr }
%struct.CoQueue = type { %struct.anon.11 }
%struct.anon.11 = type { ptr, ptr }
%struct.BlockdevCreateOptions = type { i32, %union.anon.17 }
%union.anon.17 = type { %struct.BlockdevCreateOptionsQcow2 }
%struct.BlockdevCreateOptionsQcow2 = type { ptr, ptr, i8, i8, i8, i8, i64, i8, i32, ptr, i8, i32, ptr, i8, i64, i8, i32, i8, i8, i8, i64, i8, i32 }
%struct.BlockdevCreateOptionsVhdx = type { ptr, i64, i8, i64, i8, i64, i8, i32, i8, i8 }
%struct.QDict = type { %struct.QObjectBase_, i64, [512 x %struct.anon.18] }
%struct.QObjectBase_ = type { i32, i64 }
%struct.anon.18 = type { ptr }
%struct.QObject = type { %struct.QObjectBase_ }

@.str.1 = private unnamed_addr constant [21 x i8] c"../qemu/block/vhdx.c\00", align 1
@.str.7 = private unnamed_addr constant [5 x i8] c"vhdx\00", align 1
@.str.23 = private unnamed_addr constant [5 x i8] c"file\00", align 1
@vhdx_co_create_opts.opt_renames = internal constant [4 x %struct.QDictRenames] [%struct.QDictRenames { ptr @.str.11, ptr @.str.52 }, %struct.QDictRenames { ptr @.str.14, ptr @.str.53 }, %struct.QDictRenames { ptr @.str.19, ptr @.str.54 }, %struct.QDictRenames zeroinitializer], align 16
@.str.55 = private unnamed_addr constant [7 x i8] c"driver\00", align 1
@.str.56 = private unnamed_addr constant [47 x i8] c"create_options->driver == BLOCKDEV_DRIVER_VHDX\00", align 1
@__PRETTY_FUNCTION__.vhdx_co_create_opts = private unnamed_addr constant [75 x i8] c"int vhdx_co_create_opts(BlockDriver *, const char *, QemuOpts *, Error **)\00", align 1
@.str.57 = private unnamed_addr constant [25 x i8] c"!obj || obj->base.refcnt\00", align 1
@.str.58 = private unnamed_addr constant [105 x i8] c"/home/dtcxzyw/WorkSpace/Projects/compilers/llvm-opt-benchmark/bench/qemu/qemu/include/qapi/qmp/qobject.h\00", align 1
@__PRETTY_FUNCTION__.qobject_unref_impl = private unnamed_addr constant [35 x i8] c"void qobject_unref_impl(QObject *)\00", align 1

; Function Attrs: nounwind sspstrong uwtable
define internal void @qobject_unref_impl(ptr noundef %obj) #0 {
entry:
  %obj.addr = alloca ptr, align 8
  store ptr %obj, ptr %obj.addr, align 8
  %0 = load ptr, ptr %obj.addr, align 8
  %tobool = icmp ne ptr %0, null
  br i1 %tobool, label %lor.lhs.false, label %if.then

lor.lhs.false:                                    ; preds = %entry
  %1 = load ptr, ptr %obj.addr, align 8
  %base = getelementptr inbounds %struct.QObject, ptr %1, i32 0, i32 0
  %refcnt = getelementptr inbounds %struct.QObjectBase_, ptr %base, i32 0, i32 1
  %2 = load i64, ptr %refcnt, align 8
  %tobool1 = icmp ne i64 %2, 0
  br i1 %tobool1, label %if.then, label %if.else

if.then:                                          ; preds = %lor.lhs.false, %entry
  br label %if.end

if.else:                                          ; preds = %lor.lhs.false
  call void @__assert_fail(ptr noundef @.str.57, ptr noundef @.str.58, i32 noundef 97, ptr noundef @__PRETTY_FUNCTION__.qobject_unref_impl) #10
  unreachable

if.end:                                           ; preds = %if.then
  %3 = load ptr, ptr %obj.addr, align 8
  %tobool2 = icmp ne ptr %3, null
  br i1 %tobool2, label %land.lhs.true, label %if.end6

land.lhs.true:                                    ; preds = %if.end
  %4 = load ptr, ptr %obj.addr, align 8
  %base3 = getelementptr inbounds %struct.QObject, ptr %4, i32 0, i32 0
  %refcnt4 = getelementptr inbounds %struct.QObjectBase_, ptr %base3, i32 0, i32 1
  %5 = load i64, ptr %refcnt4, align 8
  %dec = add i64 %5, -1
  store i64 %dec, ptr %refcnt4, align 8
  %cmp = icmp eq i64 %dec, 0
  br i1 %cmp, label %if.then5, label %if.end6

if.then5:                                         ; preds = %land.lhs.true
  %6 = load ptr, ptr %obj.addr, align 8
  call void @qobject_destroy(ptr noundef %6)
  br label %if.end6

if.end6:                                          ; preds = %if.then5, %land.lhs.true, %if.end
  ret void
}

; Function Attrs: nounwind sspstrong uwtable
define internal i32 @vhdx_co_create_opts(ptr noundef %drv, ptr noundef %filename, ptr noundef %opts, ptr noundef %errp) #0 {
entry:
  %drv.addr = alloca ptr, align 8
  %filename.addr = alloca ptr, align 8
  %opts.addr = alloca ptr, align 8
  %errp.addr = alloca ptr, align 8
  %create_options = alloca ptr, align 8
  %qdict = alloca ptr, align 8
  %v = alloca ptr, align 8
  %bs = alloca ptr, align 8
  %ret = alloca i32, align 4
  %_obj8 = alloca ptr, align 8
  %tmp = alloca ptr, align 8
  %__mptr = alloca ptr, align 8
  %tmp57 = alloca ptr, align 8
  store ptr %drv, ptr %drv.addr, align 8
  store ptr %filename, ptr %filename.addr, align 8
  store ptr %opts, ptr %opts.addr, align 8
  store ptr %errp, ptr %errp.addr, align 8
  store ptr null, ptr %create_options, align 8
  store ptr null, ptr %bs, align 8
  %0 = load ptr, ptr %opts.addr, align 8
  %call = call ptr @qemu_opts_to_qdict_filtered(ptr noundef %0, ptr noundef null, ptr noundef @vhdx_create_opts, i1 noundef zeroext true)
  store ptr %call, ptr %qdict, align 8
  %1 = load ptr, ptr %qdict, align 8
  %2 = load ptr, ptr %errp.addr, align 8
  %call1 = call zeroext i1 @qdict_rename_keys(ptr noundef %1, ptr noundef @vhdx_co_create_opts.opt_renames, ptr noundef %2)
  br i1 %call1, label %if.end, label %if.then

if.then:                                          ; preds = %entry
  store i32 -22, ptr %ret, align 4
  br label %fail

if.end:                                           ; preds = %entry
  %3 = load ptr, ptr %filename.addr, align 8
  %4 = load ptr, ptr %opts.addr, align 8
  %5 = load ptr, ptr %errp.addr, align 8
  %call2 = call i32 @bdrv_co_create_file(ptr noundef %3, ptr noundef %4, ptr noundef %5)
  store i32 %call2, ptr %ret, align 4
  %6 = load i32, ptr %ret, align 4
  %cmp = icmp slt i32 %6, 0
  br i1 %cmp, label %if.then3, label %if.end4

if.then3:                                         ; preds = %if.end
  br label %fail

if.end4:                                          ; preds = %if.end
  %7 = load ptr, ptr %filename.addr, align 8
  %8 = load ptr, ptr %errp.addr, align 8
  %call5 = call ptr @bdrv_co_open(ptr noundef %7, ptr noundef null, ptr noundef null, i32 noundef 32774, ptr noundef %8)
  store ptr %call5, ptr %bs, align 8
  %9 = load ptr, ptr %bs, align 8
  %cmp6 = icmp eq ptr %9, null
  br i1 %cmp6, label %if.then7, label %if.end8

if.then7:                                         ; preds = %if.end4
  store i32 -5, ptr %ret, align 4
  br label %fail

if.end8:                                          ; preds = %if.end4
  %10 = load ptr, ptr %qdict, align 8
  call void @qdict_put_str(ptr noundef %10, ptr noundef @.str.55, ptr noundef @.str.7)
  %11 = load ptr, ptr %qdict, align 8
  %12 = load ptr, ptr %bs, align 8
  %node_name = getelementptr inbounds %struct.BlockDriverState, ptr %12, i32 0, i32 22
  %arraydecay = getelementptr inbounds [32 x i8], ptr %node_name, i64 0, i64 0
  call void @qdict_put_str(ptr noundef %11, ptr noundef @.str.23, ptr noundef %arraydecay)
  %13 = load ptr, ptr %qdict, align 8
  %14 = load ptr, ptr %errp.addr, align 8
  %call9 = call ptr @qobject_input_visitor_new_flat_confused(ptr noundef %13, ptr noundef %14)
  store ptr %call9, ptr %v, align 8
  %15 = load ptr, ptr %v, align 8
  %tobool = icmp ne ptr %15, null
  br i1 %tobool, label %if.end11, label %if.then10

if.then10:                                        ; preds = %if.end8
  store i32 -22, ptr %ret, align 4
  br label %fail

if.end11:                                         ; preds = %if.end8
  %16 = load ptr, ptr %v, align 8
  %17 = load ptr, ptr %errp.addr, align 8
  %call12 = call zeroext i1 @visit_type_BlockdevCreateOptions(ptr noundef %16, ptr noundef null, ptr noundef %create_options, ptr noundef %17)
  %18 = load ptr, ptr %v, align 8
  call void @visit_free(ptr noundef %18)
  %19 = load ptr, ptr %create_options, align 8
  %tobool13 = icmp ne ptr %19, null
  br i1 %tobool13, label %if.end15, label %if.then14

if.then14:                                        ; preds = %if.end11
  store i32 -22, ptr %ret, align 4
  br label %fail

if.end15:                                         ; preds = %if.end11
  %20 = load ptr, ptr %create_options, align 8
  %driver = getelementptr inbounds %struct.BlockdevCreateOptions, ptr %20, i32 0, i32 0
  %21 = load i32, ptr %driver, align 8
  %cmp16 = icmp eq i32 %21, 38
  br i1 %cmp16, label %if.then17, label %if.else

if.then17:                                        ; preds = %if.end15
  br label %if.end18

if.else:                                          ; preds = %if.end15
  call void @__assert_fail(ptr noundef @.str.56, ptr noundef @.str.1, i32 noundef 2133, ptr noundef @__PRETTY_FUNCTION__.vhdx_co_create_opts) #10
  unreachable

if.end18:                                         ; preds = %if.then17
  %22 = load ptr, ptr %create_options, align 8
  %u = getelementptr inbounds %struct.BlockdevCreateOptions, ptr %22, i32 0, i32 1
  %size = getelementptr inbounds %struct.BlockdevCreateOptionsVhdx, ptr %u, i32 0, i32 1
  %23 = load i64, ptr %size, align 8
  %add = add i64 %23, 512
  %sub = sub i64 %add, 1
  %and = and i64 %sub, -512
  %24 = load ptr, ptr %create_options, align 8
  %u19 = getelementptr inbounds %struct.BlockdevCreateOptions, ptr %24, i32 0, i32 1
  %size20 = getelementptr inbounds %struct.BlockdevCreateOptionsVhdx, ptr %u19, i32 0, i32 1
  store i64 %and, ptr %size20, align 8
  %25 = load ptr, ptr %create_options, align 8
  %u21 = getelementptr inbounds %struct.BlockdevCreateOptions, ptr %25, i32 0, i32 1
  %has_log_size = getelementptr inbounds %struct.BlockdevCreateOptionsVhdx, ptr %u21, i32 0, i32 2
  %26 = load i8, ptr %has_log_size, align 8
  %tobool22 = trunc i8 %26 to i1
  br i1 %tobool22, label %if.then23, label %if.end30

if.then23:                                        ; preds = %if.end18
  %27 = load ptr, ptr %create_options, align 8
  %u24 = getelementptr inbounds %struct.BlockdevCreateOptions, ptr %27, i32 0, i32 1
  %log_size = getelementptr inbounds %struct.BlockdevCreateOptionsVhdx, ptr %u24, i32 0, i32 3
  %28 = load i64, ptr %log_size, align 8
  %add25 = add i64 %28, 1048576
  %sub26 = sub i64 %add25, 1
  %and27 = and i64 %sub26, -1048576
  %29 = load ptr, ptr %create_options, align 8
  %u28 = getelementptr inbounds %struct.BlockdevCreateOptions, ptr %29, i32 0, i32 1
  %log_size29 = getelementptr inbounds %struct.BlockdevCreateOptionsVhdx, ptr %u28, i32 0, i32 3
  store i64 %and27, ptr %log_size29, align 8
  br label %if.end30

if.end30:                                         ; preds = %if.then23, %if.end18
  %30 = load ptr, ptr %create_options, align 8
  %u31 = getelementptr inbounds %struct.BlockdevCreateOptions, ptr %30, i32 0, i32 1
  %has_block_size = getelementptr inbounds %struct.BlockdevCreateOptionsVhdx, ptr %u31, i32 0, i32 4
  %31 = load i8, ptr %has_block_size, align 8
  %tobool32 = trunc i8 %31 to i1
  br i1 %tobool32, label %if.then33, label %if.end54

if.then33:                                        ; preds = %if.end30
  %32 = load ptr, ptr %create_options, align 8
  %u34 = getelementptr inbounds %struct.BlockdevCreateOptions, ptr %32, i32 0, i32 1
  %block_size = getelementptr inbounds %struct.BlockdevCreateOptionsVhdx, ptr %u34, i32 0, i32 5
  %33 = load i64, ptr %block_size, align 8
  %add35 = add i64 %33, 1048576
  %sub36 = sub i64 %add35, 1
  %and37 = and i64 %sub36, -1048576
  %34 = load ptr, ptr %create_options, align 8
  %u38 = getelementptr inbounds %struct.BlockdevCreateOptions, ptr %34, i32 0, i32 1
  %block_size39 = getelementptr inbounds %struct.BlockdevCreateOptionsVhdx, ptr %u38, i32 0, i32 5
  store i64 %and37, ptr %block_size39, align 8
  %35 = load ptr, ptr %create_options, align 8
  %u40 = getelementptr inbounds %struct.BlockdevCreateOptions, ptr %35, i32 0, i32 1
  %block_size41 = getelementptr inbounds %struct.BlockdevCreateOptionsVhdx, ptr %u40, i32 0, i32 5
  %36 = load i64, ptr %block_size41, align 8
  %cmp42 = icmp eq i64 %36, 0
  br i1 %cmp42, label %if.then43, label %if.end46

if.then43:                                        ; preds = %if.then33
  %37 = load ptr, ptr %create_options, align 8
  %u44 = getelementptr inbounds %struct.BlockdevCreateOptions, ptr %37, i32 0, i32 1
  %has_block_size45 = getelementptr inbounds %struct.BlockdevCreateOptionsVhdx, ptr %u44, i32 0, i32 4
  store i8 0, ptr %has_block_size45, align 8
  br label %if.end46

if.end46:                                         ; preds = %if.then43, %if.then33
  %38 = load ptr, ptr %create_options, align 8
  %u47 = getelementptr inbounds %struct.BlockdevCreateOptions, ptr %38, i32 0, i32 1
  %block_size48 = getelementptr inbounds %struct.BlockdevCreateOptionsVhdx, ptr %u47, i32 0, i32 5
  %39 = load i64, ptr %block_size48, align 8
  %cmp49 = icmp ugt i64 %39, 268435456
  br i1 %cmp49, label %if.then50, label %if.end53

if.then50:                                        ; preds = %if.end46
  %40 = load ptr, ptr %create_options, align 8
  %u51 = getelementptr inbounds %struct.BlockdevCreateOptions, ptr %40, i32 0, i32 1
  %block_size52 = getelementptr inbounds %struct.BlockdevCreateOptionsVhdx, ptr %u51, i32 0, i32 5
  store i64 268435456, ptr %block_size52, align 8
  br label %if.end53

if.end53:                                         ; preds = %if.then50, %if.end46
  br label %if.end54

if.end54:                                         ; preds = %if.end53, %if.end30
  %41 = load ptr, ptr %create_options, align 8
  %42 = load ptr, ptr %errp.addr, align 8
  %call55 = call i32 @vhdx_co_create(ptr noundef %41, ptr noundef %42)
  store i32 %call55, ptr %ret, align 4
  br label %fail

fail:                                             ; preds = %if.end54, %if.then14, %if.then10, %if.then7, %if.then3, %if.then
  %43 = load ptr, ptr %qdict, align 8
  store ptr %43, ptr %_obj8, align 8
  %44 = load ptr, ptr %_obj8, align 8
  %tobool56 = icmp ne ptr %44, null
  br i1 %tobool56, label %cond.true, label %cond.false

cond.true:                                        ; preds = %fail
  %45 = load ptr, ptr %_obj8, align 8
  %base = getelementptr inbounds %struct.QDict, ptr %45, i32 0, i32 0
  store ptr %base, ptr %__mptr, align 8
  %46 = load ptr, ptr %__mptr, align 8
  %add.ptr = getelementptr i8, ptr %46, i64 0
  store ptr %add.ptr, ptr %tmp57, align 8
  %47 = load ptr, ptr %tmp57, align 8
  br label %cond.end

cond.false:                                       ; preds = %fail
  br label %cond.end

cond.end:                                         ; preds = %cond.false, %cond.true
  %cond = phi ptr [ %47, %cond.true ], [ null, %cond.false ]
  store ptr %cond, ptr %tmp, align 8
  %48 = load ptr, ptr %tmp, align 8
  call void @qobject_unref_impl(ptr noundef %48)
  %49 = load ptr, ptr %bs, align 8
  call void @bdrv_co_unref(ptr noundef %49)
  %50 = load ptr, ptr %create_options, align 8
  call void @qapi_free_BlockdevCreateOptions(ptr noundef %50)
  %51 = load i32, ptr %ret, align 4
  ret i32 %51
}