; Function Attrs: nounwind sspstrong uwtable
define internal range(i32 -2147483648, 1) i32 @vhdx_co_create_opts(ptr readnone captures(none) %drv, ptr noundef %filename, ptr noundef %opts, ptr noundef %errp) #0 {
entry:
  %create_options = alloca ptr, align 8
  store ptr null, ptr %create_options, align 8
  %call = tail call ptr @qemu_opts_to_qdict_filtered(ptr noundef %opts, ptr noundef null, ptr noundef nonnull @vhdx_create_opts, i1 noundef zeroext true) #17
  %call1 = tail call zeroext i1 @qdict_rename_keys(ptr noundef %call, ptr noundef nonnull @vhdx_co_create_opts.opt_renames, ptr noundef %errp) #17
  br i1 %call1, label %if.end, label %fail

if.end:                                           ; preds = %entry
  %call2 = tail call i32 @bdrv_co_create_file(ptr noundef %filename, ptr noundef %opts, ptr noundef %errp) #17
  %cmp = icmp slt i32 %call2, 0
  br i1 %cmp, label %fail, label %if.end4

if.end4:                                          ; preds = %if.end
  %call5 = tail call ptr @bdrv_co_open(ptr noundef %filename, ptr noundef null, ptr noundef null, i32 noundef 32774, ptr noundef %errp) #17
  %cmp6 = icmp eq ptr %call5, null
  br i1 %cmp6, label %fail, label %if.end8

if.end8:                                          ; preds = %if.end4
  tail call void @qdict_put_str(ptr noundef %call, ptr noundef nonnull @.str.55, ptr noundef nonnull @.str.7) #17
  %node_name = getelementptr inbounds nuw i8, ptr %call5, i64 16600
  tail call void @qdict_put_str(ptr noundef %call, ptr noundef nonnull @.str.23, ptr noundef nonnull %node_name) #17
  %call9 = tail call ptr @qobject_input_visitor_new_flat_confused(ptr noundef %call, ptr noundef %errp) #17
  %tobool.not = icmp eq ptr %call9, null
  br i1 %tobool.not, label %fail, label %if.end11

if.end11:                                         ; preds = %if.end8
  %call12 = call zeroext i1 @visit_type_BlockdevCreateOptions(ptr noundef nonnull %call9, ptr noundef null, ptr noundef nonnull %create_options, ptr noundef %errp) #17
  call void @visit_free(ptr noundef nonnull %call9) #17
  %0 = load ptr, ptr %create_options, align 8
  %tobool13.not = icmp eq ptr %0, null
  br i1 %tobool13.not, label %fail, label %if.end15

if.end15:                                         ; preds = %if.end11
  %1 = load i32, ptr %0, align 8
  %cmp16 = icmp eq i32 %1, 38
  br i1 %cmp16, label %if.end18, label %if.else

if.else:                                          ; preds = %if.end15
  call void @__assert_fail(ptr noundef nonnull @.str.56, ptr noundef nonnull @.str.1, i32 noundef 2133, ptr noundef nonnull @__PRETTY_FUNCTION__.vhdx_co_create_opts) #16
  unreachable

if.end18:                                         ; preds = %if.end15
  %size = getelementptr inbounds nuw i8, ptr %0, i64 16
  %2 = load i64, ptr %size, align 8
  %sub = add i64 %2, 511
  %and = and i64 %sub, -512
  store i64 %and, ptr %size, align 8
  %has_log_size = getelementptr inbounds nuw i8, ptr %0, i64 24
  %3 = load i8, ptr %has_log_size, align 8
  %tobool22 = trunc i8 %3 to i1
  br i1 %tobool22, label %if.then23, label %if.end30

if.then23:                                        ; preds = %if.end18
  %log_size = getelementptr inbounds nuw i8, ptr %0, i64 32
  %4 = load i64, ptr %log_size, align 8
  %sub26 = add i64 %4, 1048575
  %and27 = and i64 %sub26, -1048576
  store i64 %and27, ptr %log_size, align 8
  br label %if.end30

if.end30:                                         ; preds = %if.then23, %if.end18
  %has_block_size = getelementptr inbounds nuw i8, ptr %0, i64 40
  %5 = load i8, ptr %has_block_size, align 8
  %tobool32 = trunc i8 %5 to i1
  br i1 %tobool32, label %if.then33, label %if.end54

if.then33:                                        ; preds = %if.end30
  %block_size = getelementptr inbounds nuw i8, ptr %0, i64 48
  %6 = load i64, ptr %block_size, align 8
  %sub36 = add i64 %6, 1048575
  %and37 = and i64 %sub36, -1048576
  store i64 %and37, ptr %block_size, align 8
  %cmp42 = icmp eq i64 %and37, 0
  br i1 %cmp42, label %if.end46.thread, label %if.end46

if.end46.thread:                                  ; preds = %if.then33
  store i8 0, ptr %has_block_size, align 8
  br label %if.end54

if.end46:                                         ; preds = %if.then33
  %cmp49 = icmp ugt i64 %and37, 268435456
  br i1 %cmp49, label %if.then50, label %if.end54

if.then50:                                        ; preds = %if.end46
  store i64 268435456, ptr %block_size, align 8
  br label %if.end54

if.end54:                                         ; preds = %if.end46.thread, %if.end46, %if.then50, %if.end30
  %call55 = call i32 @vhdx_co_create(ptr noundef nonnull %0, ptr noundef %errp)
  br label %fail

fail:                                             ; preds = %if.end11, %if.end8, %if.end4, %entry, %if.end, %if.end54
  %ret.0 = phi i32 [ %call2, %if.end ], [ %call55, %if.end54 ], [ -22, %entry ], [ -5, %if.end4 ], [ -22, %if.end8 ], [ -22, %if.end11 ]
  %bs.0 = phi ptr [ null, %if.end ], [ %call5, %if.end54 ], [ null, %entry ], [ null, %if.end4 ], [ %call5, %if.end8 ], [ %call5, %if.end11 ]
  %tobool56.not = icmp eq ptr %call, null
  br i1 %tobool56.not, label %qobject_unref_impl.exit, label %lor.lhs.false.i

lor.lhs.false.i:                                  ; preds = %fail
  %refcnt.i = getelementptr inbounds nuw i8, ptr %call, i64 8
  %7 = load i64, ptr %refcnt.i, align 8
  %tobool1.not.i = icmp eq i64 %7, 0
  br i1 %tobool1.not.i, label %if.else.i, label %land.lhs.true.i

if.else.i:                                        ; preds = %lor.lhs.false.i
  call void @__assert_fail(ptr noundef nonnull @.str.57, ptr noundef nonnull @.str.58, i32 noundef 97, ptr noundef nonnull @__PRETTY_FUNCTION__.qobject_unref_impl) #16
  unreachable

land.lhs.true.i:                                  ; preds = %lor.lhs.false.i
  %dec.i = add i64 %7, -1
  store i64 %dec.i, ptr %refcnt.i, align 8
  %cmp.i = icmp eq i64 %dec.i, 0
  br i1 %cmp.i, label %if.then5.i, label %qobject_unref_impl.exit

if.then5.i:                                       ; preds = %land.lhs.true.i
  call void @qobject_destroy(ptr noundef nonnull %call) #17
  br label %qobject_unref_impl.exit

qobject_unref_impl.exit:                          ; preds = %fail, %land.lhs.true.i, %if.then5.i
  call void @bdrv_co_unref(ptr noundef %bs.0) #17
  %8 = load ptr, ptr %create_options, align 8
  call void @qapi_free_BlockdevCreateOptions(ptr noundef %8) #17
  ret i32 %ret.0
}